target datalayout = "e-m:e-p270:32:32-p271:32:32-p272:64:64-i64:64-i128:128-f80:128-n8:16:32:64-S128"
target triple = "x86_64-unknown-linux-gnu"

%"struct.Imf_3_2::DeepTiledInputFile::Data" = type <{ %"class.std::mutex", %"class.Imf_3_2::Header", %"class.Imf_3_2::TileDescription", i32, [4 x i8], %"class.Imf_3_2::DeepFrameBuffer", i32, i32, i32, i32, i32, i32, i32, [4 x i8], ptr, ptr, %"class.Imf_3_2::TileOffsets", i8, [7 x i8], %"class.std::vector.11", i32, i8, [3 x i8], i32, [4 x i8], ptr, %"class.std::vector.16", i8, [7 x i8], ptr, i64, i64, i32, i32, %"class.Imf_3_2::Array", ptr, i64, i32, [4 x i8], ptr, i8, [7 x i8] }>
%"class.std::mutex" = type { %"class.std::__mutex_base" }
%"class.std::__mutex_base" = type { %union.pthread_mutex_t }
%union.pthread_mutex_t = type { %struct.__pthread_mutex_s }
%struct.__pthread_mutex_s = type { i32, i32, i32, i32, i32, i16, i16, %struct.__pthread_internal_list }
%struct.__pthread_internal_list = type { ptr, ptr }
%"class.Imf_3_2::Header" = type <{ %"class.std::map", i8, [7 x i8] }>
%"class.std::map" = type { %"class.std::_Rb_tree" }
%"class.std::_Rb_tree" = type { %"struct.std::_Rb_tree<Imf_3_2::Name, std::pair<const Imf_3_2::Name, Imf_3_2::Attribute *>, std::_Select1st<std::pair<const Imf_3_2::Name, Imf_3_2::Attribute *>>, std::less<Imf_3_2::Name>>::_Rb_tree_impl" }
%"struct.std::_Rb_tree<Imf_3_2::Name, std::pair<const Imf_3_2::Name, Imf_3_2::Attribute *>, std::_Select1st<std::pair<const Imf_3_2::Name, Imf_3_2::Attribute *>>, std::less<Imf_3_2::Name>>::_Rb_tree_impl" = type { %"struct.std::_Rb_tree_key_compare", %"struct.std::_Rb_tree_header" }
%"struct.std::_Rb_tree_key_compare" = type { %"struct.std::less" }
%"struct.std::less" = type { i8 }
%"struct.std::_Rb_tree_header" = type { %"struct.std::_Rb_tree_node_base", i64 }
%"struct.std::_Rb_tree_node_base" = type { i32, ptr, ptr, ptr }
%"class.Imf_3_2::TileDescription" = type { i32, i32, i32, i32 }
%"class.Imf_3_2::DeepFrameBuffer" = type { %"class.std::map.3", %"struct.Imf_3_2::Slice" }
%"class.std::map.3" = type { %"class.std::_Rb_tree.4" }
%"class.std::_Rb_tree.4" = type { %"struct.std::_Rb_tree<Imf_3_2::Name, std::pair<const Imf_3_2::Name, Imf_3_2::DeepSlice>, std::_Select1st<std::pair<const Imf_3_2::Name, Imf_3_2::DeepSlice>>, std::less<Imf_3_2::Name>>::_Rb_tree_impl" }
%"struct.std::_Rb_tree<Imf_3_2::Name, std::pair<const Imf_3_2::Name, Imf_3_2::DeepSlice>, std::_Select1st<std::pair<const Imf_3_2::Name, Imf_3_2::DeepSlice>>, std::less<Imf_3_2::Name>>::_Rb_tree_impl" = type { %"struct.std::_Rb_tree_key_compare", %"struct.std::_Rb_tree_header" }
%"struct.Imf_3_2::Slice" = type <{ i32, [4 x i8], ptr, i64, i64, i32, i32, double, i8, i8, [6 x i8] }>
%"class.Imf_3_2::TileOffsets" = type { i32, i32, i32, %"class.std::vector" }
%"class.std::vector" = type { %"struct.std::_Vector_base" }
%"struct.std::_Vector_base" = type { %"struct.std::_Vector_base<std::vector<std::vector<unsigned long>>, std::allocator<std::vector<std::vector<unsigned long>>>>::_Vector_impl" }
%"struct.std::_Vector_base<std::vector<std::vector<unsigned long>>, std::allocator<std::vector<std::vector<unsigned long>>>>::_Vector_impl" = type { %"struct.std::_Vector_base<std::vector<std::vector<unsigned long>>, std::allocator<std::vector<std::vector<unsigned long>>>>::_Vector_impl_data" }
%"struct.std::_Vector_base<std::vector<std::vector<unsigned long>>, std::allocator<std::vector<std::vector<unsigned long>>>>::_Vector_impl_data" = type { ptr, ptr, ptr }
%"class.std::vector.11" = type { %"struct.std::_Vector_base.12" }
%"struct.std::_Vector_base.12" = type { %"struct.std::_Vector_base<Imf_3_2::(anonymous namespace)::TInSliceInfo *, std::allocator<Imf_3_2::(anonymous namespace)::TInSliceInfo *>>::_Vector_impl" }
%"struct.std::_Vector_base<Imf_3_2::(anonymous namespace)::TInSliceInfo *, std::allocator<Imf_3_2::(anonymous namespace)::TInSliceInfo *>>::_Vector_impl" = type { %"struct.std::_Vector_base<Imf_3_2::(anonymous namespace)::TInSliceInfo *, std::allocator<Imf_3_2::(anonymous namespace)::TInSliceInfo *>>::_Vector_impl_data" }
%"struct.std::_Vector_base<Imf_3_2::(anonymous namespace)::TInSliceInfo *, std::allocator<Imf_3_2::(anonymous namespace)::TInSliceInfo *>>::_Vector_impl_data" = type { ptr, ptr, ptr }
%"class.std::vector.16" = type { %"struct.std::_Vector_base.17" }
%"struct.std::_Vector_base.17" = type { %"struct.std::_Vector_base<Imf_3_2::(anonymous namespace)::TileBuffer *, std::allocator<Imf_3_2::(anonymous namespace)::TileBuffer *>>::_Vector_impl" }
%"struct.std::_Vector_base<Imf_3_2::(anonymous namespace)::TileBuffer *, std::allocator<Imf_3_2::(anonymous namespace)::TileBuffer *>>::_Vector_impl" = type { %"struct.std::_Vector_base<Imf_3_2::(anonymous namespace)::TileBuffer *, std::allocator<Imf_3_2::(anonymous namespace)::TileBuffer *>>::_Vector_impl_data" }
%"struct.std::_Vector_base<Imf_3_2::(anonymous namespace)::TileBuffer *, std::allocator<Imf_3_2::(anonymous namespace)::TileBuffer *>>::_Vector_impl_data" = type { ptr, ptr, ptr }
%"class.Imf_3_2::Array" = type { i64, ptr }
%"class.Imf_3_2::DeepTiledInputFile" = type { %"class.Imf_3_2::GenericInputFile", ptr }
%"class.Imf_3_2::GenericInputFile" = type { ptr }

; Function Attrs: mustprogress nounwind uwtable
define noundef zeroext i1 @_ZNK7Imf_3_218DeepTiledInputFile11isValidTileEiiii(ptr noundef nonnull align 8 dereferenceable(16) %this, i32 noundef %dx, i32 noundef %dy, i32 noundef %lx, i32 noundef %ly) #5 align 2 {
entry:
  %this.addr = alloca ptr, align 8
  %dx.addr = alloca i32, align 4
  %dy.addr = alloca i32, align 4
  %lx.addr = alloca i32, align 4
  %ly.addr = alloca i32, align 4
  store ptr %this, ptr %this.addr, align 8
  store i32 %dx, ptr %dx.addr, align 4
  store i32 %dy, ptr %dy.addr, align 4
  store i32 %lx, ptr %lx.addr, align 4
  store i32 %ly, ptr %ly.addr, align 4
  %this1 = load ptr, ptr %this.addr, align 8
  %0 = load i32, ptr %lx.addr, align 4
  %_data = getelementptr inbounds %"class.Imf_3_2::DeepTiledInputFile", ptr %this1, i32 0, i32 1
  %1 = load ptr, ptr %_data, align 8
  %numXLevels = getelementptr inbounds %"struct.Imf_3_2::DeepTiledInputFile::Data", ptr %1, i32 0, i32 11
  %2 = load i32, ptr %numXLevels, align 4
  %cmp = icmp slt i32 %0, %2
  br i1 %cmp, label %land.lhs.true, label %land.end19

land.lhs.true:                                    ; preds = %entry
  %3 = load i32, ptr %lx.addr, align 4
  %cmp2 = icmp sge i32 %3, 0
  br i1 %cmp2, label %land.lhs.true3, label %land.end19

land.lhs.true3:                                   ; preds = %land.lhs.true
  %4 = load i32, ptr %ly.addr, align 4
  %_data4 = getelementptr inbounds %"class.Imf_3_2::DeepTiledInputFile", ptr %this1, i32 0, i32 1
  %5 = load ptr, ptr %_data4, align 8
  %numYLevels = getelementptr inbounds %"struct.Imf_3_2::DeepTiledInputFile::Data", ptr %5, i32 0, i32 12
  %6 = load i32, ptr %numYLevels, align 8
  %cmp5 = icmp slt i32 %4, %6
  br i1 %cmp5, label %land.lhs.true6, label %land.end19

land.lhs.true6:                                   ; preds = %land.lhs.true3
  %7 = load i32, ptr %ly.addr, align 4
  %cmp7 = icmp sge i32 %7, 0
  br i1 %cmp7, label %land.lhs.true8, label %land.end19

land.lhs.true8:                                   ; preds = %land.lhs.true6
  %8 = load i32, ptr %dx.addr, align 4
  %_data9 = getelementptr inbounds %"class.Imf_3_2::DeepTiledInputFile", ptr %this1, i32 0, i32 1
  %9 = load ptr, ptr %_data9, align 8
  %numXTiles = getelementptr inbounds %"struct.Imf_3_2::DeepTiledInputFile::Data", ptr %9, i32 0, i32 14
  %10 = load ptr, ptr %numXTiles, align 8
  %11 = load i32, ptr %lx.addr, align 4
  %idxprom = sext i32 %11 to i64
  %arrayidx = getelementptr inbounds i32, ptr %10, i64 %idxprom
  %12 = load i32, ptr %arrayidx, align 4
  %cmp10 = icmp slt i32 %8, %12
  br i1 %cmp10, label %land.lhs.true11, label %land.end19

land.lhs.true11:                                  ; preds = %land.lhs.true8
  %13 = load i32, ptr %dx.addr, align 4
  %cmp12 = icmp sge i32 %13, 0
  br i1 %cmp12, label %land.rhs, label %land.end19

land.rhs:                                         ; preds = %land.lhs.true11
  %14 = load i32, ptr %dy.addr, align 4
  %_data13 = getelementptr inbounds %"class.Imf_3_2::DeepTiledInputFile", ptr %this1, i32 0, i32 1
  %15 = load ptr, ptr %_data13, align 8
  %numYTiles = getelementptr inbounds %"struct.Imf_3_2::DeepTiledInputFile::Data", ptr %15, i32 0, i32 15
  %16 = load ptr, ptr %numYTiles, align 8
  %17 = load i32, ptr %ly.addr, align 4
  %idxprom14 = sext i32 %17 to i64
  %arrayidx15 = getelementptr inbounds i32, ptr %16, i64 %idxprom14
  %18 = load i32, ptr %arrayidx15, align 4
  %cmp16 = icmp slt i32 %14, %18
  br i1 %cmp16, label %land.rhs17, label %land.end

land.rhs17:                                       ; preds = %land.rhs
  %19 = load i32, ptr %dy.addr, align 4
  %cmp18 = icmp sge i32 %19, 0
  br label %land.end

land.end:                                         ; preds = %land.rhs17, %land.rhs
  %20 = phi i1 [ false, %land.rhs ], [ %cmp18, %land.rhs17 ]
  br label %land.end19

land.end19:                                       ; preds = %land.end, %land.lhs.true11, %land.lhs.true8, %land.lhs.true6, %land.lhs.true3, %land.lhs.true, %entry
  %21 = phi i1 [ false, %land.lhs.true11 ], [ false, %land.lhs.true8 ], [ false, %land.lhs.true6 ], [ false, %land.lhs.true3 ], [ false, %land.lhs.true ], [ false, %entry ], [ %20, %land.end ]
  ret i1 %21
}