; Function Attrs: mustprogress nofree norecurse nosync nounwind willreturn memory(read, inaccessiblemem: none) uwtable
define noundef zeroext i1 @_ZNK7Imf_3_218DeepTiledInputFile11isValidTileEiiii(ptr nocapture noundef nonnull readonly align 8 dereferenceable(16) %this, i32 noundef %dx, i32 noundef %dy, i32 noundef %lx, i32 noundef %ly) local_unnamed_addr #12 align 2 {
entry:
  %_data = getelementptr inbounds i8, ptr %this, i64 8
  %0 = load ptr, ptr %_data, align 8
  %numXLevels = getelementptr inbounds i8, ptr %0, i64 244
  %1 = load i32, ptr %numXLevels, align 4
  %cmp = icmp sgt i32 %1, %lx
  %cmp2 = icmp sgt i32 %lx, -1
  %or.cond = and i1 %cmp2, %cmp
  br i1 %or.cond, label %land.lhs.true3, label %land.end19

land.lhs.true3:                                   ; preds = %entry
  %numYLevels = getelementptr inbounds i8, ptr %0, i64 248
  %2 = load i32, ptr %numYLevels, align 8
  %cmp5 = icmp sgt i32 %2, %ly
  %cmp7 = icmp sgt i32 %ly, -1
  %or.cond1 = and i1 %cmp7, %cmp5
  br i1 %or.cond1, label %land.lhs.true8, label %land.end19

land.lhs.true8:                                   ; preds = %land.lhs.true3
  %numXTiles = getelementptr inbounds i8, ptr %0, i64 256
  %3 = load ptr, ptr %numXTiles, align 8
  %idxprom = zext nneg i32 %lx to i64
  %arrayidx = getelementptr inbounds i32, ptr %3, i64 %idxprom
  %4 = load i32, ptr %arrayidx, align 4
  %cmp10 = icmp sgt i32 %4, %dx
  %cmp12 = icmp sgt i32 %dx, -1
  %or.cond2 = and i1 %cmp12, %cmp10
  br i1 %or.cond2, label %land.rhs, label %land.end19

land.rhs:                                         ; preds = %land.lhs.true8
  %numYTiles = getelementptr inbounds i8, ptr %0, i64 264
  %5 = load ptr, ptr %numYTiles, align 8
  %idxprom14 = zext nneg i32 %ly to i64
  %arrayidx15 = getelementptr inbounds i32, ptr %5, i64 %idxprom14
  %6 = load i32, ptr %arrayidx15, align 4
  %cmp16 = icmp sgt i32 %6, %dy
  %cmp18 = icmp sgt i32 %dy, -1
  %7 = and i1 %cmp18, %cmp16
  br label %land.end19

land.end19:                                       ; preds = %land.rhs, %land.lhs.true8, %land.lhs.true3, %entry
  %8 = phi i1 [ false, %land.lhs.true8 ], [ false, %land.lhs.true3 ], [ false, %entry ], [ %7, %land.rhs ]
  ret i1 %8
}